(dp1
S'decoder_num_units'
p2
(lp3
I100
aI150
asS'input2_size'
p4
I16
sS'tot_epochs'
p5
I150
sS'latent_size'
p6
I1
sS'output_size'
p7
I2
sS'encoder_num_units'
p8
(lp9
I150
aI100
asS'input_size'
p10
I30
sS'name'
p11
S'collision'
p12
s.