(dp1
S'decoder_num_units'
p2
(lp3
I100
aI100
asS'time_series_length'
p4
I50
sS'tot_epochs'
p5
I15000
sS'latent_size'
p6
I2
sS'output_size'
p7
I2
sS'encoder_num_units'
p8
(lp9
I100
aI100
asS'euler_num_units'
p10
(lp11
sS'input_size'
p12
I1
sS'name'
p13
S'copernicus_realistic_run_10'
p14
s.