(dp1
S'decoder_num_units'
p2
(lp3
I100
aI100
asS'input2_size'
p4
I1
sS'tot_epochs'
p5
I1000
sS'latent_size'
p6
I3
sS'output_size'
p7
I1
sS'encoder_num_units'
p8
(lp9
I500
aI100
asS'input_size'
p10
I50
sS'name'
p11
S'osc_3_latent'
p12
s.